Archive member included to satisfy reference by file (symbol)

/usr/lib/gcc/avr/5.4.0/avr5/libgcc.a(_mulsi3.o)
                              build/engine.o (__mulsi3)
/usr/lib/gcc/avr/5.4.0/avr5/libgcc.a(_udivmodqi4.o)
                              build/engine.o (__udivmodqi4)
/usr/lib/gcc/avr/5.4.0/avr5/libgcc.a(_udivmodhi4.o)
                              build/modes.o (__udivmodhi4)
/usr/lib/gcc/avr/5.4.0/avr5/libgcc.a(_udivmodsi4.o)
                              build/clock.o (__udivmodsi4)
/usr/lib/gcc/avr/5.4.0/avr5/libgcc.a(_divmodsi4.o)
                              build/waveforms.o (__divmodsi4)
/usr/lib/gcc/avr/5.4.0/avr5/libgcc.a(_negsi2.o)
                              /usr/lib/gcc/avr/5.4.0/avr5/libgcc.a(_divmodsi4.o) (__negsi2)
/usr/lib/gcc/avr/5.4.0/avr5/libgcc.a(_exit.o)
                              /usr/lib/gcc/avr/5.4.0/../../../avr/lib/avr5/crtatmega328p.o (exit)
/usr/lib/gcc/avr/5.4.0/avr5/libgcc.a(_tablejump2.o)
                              build/engine.o (__tablejump2__)
/usr/lib/gcc/avr/5.4.0/avr5/libgcc.a(_copy_data.o)
                              build/modes.o (__do_copy_data)
/usr/lib/gcc/avr/5.4.0/avr5/libgcc.a(_clear_bss.o)
                              build/adc.o (__do_clear_bss)
/usr/lib/gcc/avr/5.4.0/avr5/libgcc.a(_umulhisi3.o)
                              build/engine.o (__umulhisi3)
/usr/lib/gcc/avr/5.4.0/avr5/libgcc.a(_usmulhisi3.o)
                              build/engine.o (__usmulhisi3)
/usr/lib/gcc/avr/5.4.0/avr5/libgcc.a(_muluhisi3.o)
                              build/engine.o (__muluhisi3)
/usr/lib/gcc/avr/5.4.0/avr5/libgcc.a(_udivdi3.o)
                              build/modes.o (__udivdi3)
/usr/lib/gcc/avr/5.4.0/avr5/libgcc.a(_udivmod64.o)
                              /usr/lib/gcc/avr/5.4.0/avr5/libgcc.a(_udivdi3.o) (__udivmod64)
/usr/lib/gcc/avr/5.4.0/avr5/libgcc.a(_ashldi3.o)
                              build/modes.o (__ashldi3)
/usr/lib/gcc/avr/5.4.0/../../../avr/lib/avr5/libatmega328p.a(eerd_block.o)
                              build/eeprom_store.o (eeprom_read_block)
/usr/lib/gcc/avr/5.4.0/../../../avr/lib/avr5/libatmega328p.a(eeupd_block.o)
                              build/eeprom_store.o (eeprom_update_block)
/usr/lib/gcc/avr/5.4.0/../../../avr/lib/avr5/libatmega328p.a(eeupd_byte.o)
                              /usr/lib/gcc/avr/5.4.0/../../../avr/lib/avr5/libatmega328p.a(eeupd_block.o) (eeprom_update_r18)

Discarded input sections

 .data          0x0000000000000000        0x0 /usr/lib/gcc/avr/5.4.0/../../../avr/lib/avr5/crtatmega328p.o
 .bss           0x0000000000000000        0x0 /usr/lib/gcc/avr/5.4.0/../../../avr/lib/avr5/crtatmega328p.o
 .text          0x0000000000000000        0x0 build/adc.o
 .data          0x0000000000000000        0x0 build/adc.o
 .bss           0x0000000000000000        0x0 build/adc.o
 .text          0x0000000000000000        0x0 build/clock.o
 .data          0x0000000000000000        0x0 build/clock.o
 .bss           0x0000000000000000        0x0 build/clock.o
 .text          0x0000000000000000        0x0 build/config_bus.o
 .data          0x0000000000000000        0x0 build/config_bus.o
 .bss           0x0000000000000000        0x0 build/config_bus.o
 .text.mt_config_bus_read_register
                0x0000000000000000       0x10 build/config_bus.o
 .text          0x0000000000000000        0x0 build/eeprom_store.o
 .data          0x0000000000000000        0x0 build/eeprom_store.o
 .bss           0x0000000000000000        0x0 build/eeprom_store.o
 .text          0x0000000000000000        0x0 build/engine.o
 .data          0x0000000000000000        0x0 build/engine.o
 .bss           0x0000000000000000        0x0 build/engine.o
 .text          0x0000000000000000        0x0 build/interrupts.o
 .data          0x0000000000000000        0x0 build/interrupts.o
 .bss           0x0000000000000000        0x0 build/interrupts.o
 .text          0x0000000000000000        0x0 build/io.o
 .data          0x0000000000000000        0x0 build/io.o
 .bss           0x0000000000000000        0x0 build/io.o
 .text          0x0000000000000000        0x0 build/main.o
 .data          0x0000000000000000        0x0 build/main.o
 .bss           0x0000000000000000        0x0 build/main.o
 .text          0x0000000000000000        0x0 build/modes.o
 .data          0x0000000000000000        0x0 build/modes.o
 .bss           0x0000000000000000        0x0 build/modes.o
 .text          0x0000000000000000        0x0 build/tables.o
 .data          0x0000000000000000        0x0 build/tables.o
 .bss           0x0000000000000000        0x0 build/tables.o
 .text          0x0000000000000000        0x0 build/waveforms.o
 .data          0x0000000000000000        0x0 build/waveforms.o
 .bss           0x0000000000000000        0x0 build/waveforms.o
 .text          0x0000000000000000        0x0 /usr/lib/gcc/avr/5.4.0/avr5/libgcc.a(_mulsi3.o)
 .data          0x0000000000000000        0x0 /usr/lib/gcc/avr/5.4.0/avr5/libgcc.a(_mulsi3.o)
 .bss           0x0000000000000000        0x0 /usr/lib/gcc/avr/5.4.0/avr5/libgcc.a(_mulsi3.o)
 .text.libgcc.div
                0x0000000000000000        0x0 /usr/lib/gcc/avr/5.4.0/avr5/libgcc.a(_mulsi3.o)
 .text.libgcc   0x0000000000000000        0x0 /usr/lib/gcc/avr/5.4.0/avr5/libgcc.a(_mulsi3.o)
 .text.libgcc.prologue
                0x0000000000000000        0x0 /usr/lib/gcc/avr/5.4.0/avr5/libgcc.a(_mulsi3.o)
 .text.libgcc.builtins
                0x0000000000000000        0x0 /usr/lib/gcc/avr/5.4.0/avr5/libgcc.a(_mulsi3.o)
 .text.libgcc.fmul
                0x0000000000000000        0x0 /usr/lib/gcc/avr/5.4.0/avr5/libgcc.a(_mulsi3.o)
 .text.libgcc.fixed
                0x0000000000000000        0x0 /usr/lib/gcc/avr/5.4.0/avr5/libgcc.a(_mulsi3.o)
 .text          0x0000000000000000        0x0 /usr/lib/gcc/avr/5.4.0/avr5/libgcc.a(_udivmodqi4.o)
 .data          0x0000000000000000        0x0 /usr/lib/gcc/avr/5.4.0/avr5/libgcc.a(_udivmodqi4.o)
 .bss           0x0000000000000000        0x0 /usr/lib/gcc/avr/5.4.0/avr5/libgcc.a(_udivmodqi4.o)
 .text.libgcc.mul
                0x0000000000000000        0x0 /usr/lib/gcc/avr/5.4.0/avr5/libgcc.a(_udivmodqi4.o)
 .text.libgcc   0x0000000000000000        0x0 /usr/lib/gcc/avr/5.4.0/avr5/libgcc.a(_udivmodqi4.o)
 .text.libgcc.prologue
                0x0000000000000000        0x0 /usr/lib/gcc/avr/5.4.0/avr5/libgcc.a(_udivmodqi4.o)
 .text.libgcc.builtins
                0x0000000000000000        0x0 /usr/lib/gcc/avr/5.4.0/avr5/libgcc.a(_udivmodqi4.o)
 .text.libgcc.fmul
                0x0000000000000000        0x0 /usr/lib/gcc/avr/5.4.0/avr5/libgcc.a(_udivmodqi4.o)
 .text.libgcc.fixed
                0x0000000000000000        0x0 /usr/lib/gcc/avr/5.4.0/avr5/libgcc.a(_udivmodqi4.o)
 .text          0x0000000000000000        0x0 /usr/lib/gcc/avr/5.4.0/avr5/libgcc.a(_udivmodhi4.o)
 .data          0x0000000000000000        0x0 /usr/lib/gcc/avr/5.4.0/avr5/libgcc.a(_udivmodhi4.o)
 .bss           0x0000000000000000        0x0 /usr/lib/gcc/avr/5.4.0/avr5/libgcc.a(_udivmodhi4.o)
 .text.libgcc.mul
                0x0000000000000000        0x0 /usr/lib/gcc/avr/5.4.0/avr5/libgcc.a(_udivmodhi4.o)
 .text.libgcc   0x0000000000000000        0x0 /usr/lib/gcc/avr/5.4.0/avr5/libgcc.a(_udivmodhi4.o)
 .text.libgcc.prologue
                0x0000000000000000        0x0 /usr/lib/gcc/avr/5.4.0/avr5/libgcc.a(_udivmodhi4.o)
 .text.libgcc.builtins
                0x0000000000000000        0x0 /usr/lib/gcc/avr/5.4.0/avr5/libgcc.a(_udivmodhi4.o)
 .text.libgcc.fmul
                0x0000000000000000        0x0 /usr/lib/gcc/avr/5.4.0/avr5/libgcc.a(_udivmodhi4.o)
 .text.libgcc.fixed
                0x0000000000000000        0x0 /usr/lib/gcc/avr/5.4.0/avr5/libgcc.a(_udivmodhi4.o)
 .text          0x0000000000000000        0x0 /usr/lib/gcc/avr/5.4.0/avr5/libgcc.a(_udivmodsi4.o)
 .data          0x0000000000000000        0x0 /usr/lib/gcc/avr/5.4.0/avr5/libgcc.a(_udivmodsi4.o)
 .bss           0x0000000000000000        0x0 /usr/lib/gcc/avr/5.4.0/avr5/libgcc.a(_udivmodsi4.o)
 .text.libgcc.mul
                0x0000000000000000        0x0 /usr/lib/gcc/avr/5.4.0/avr5/libgcc.a(_udivmodsi4.o)
 .text.libgcc   0x0000000000000000        0x0 /usr/lib/gcc/avr/5.4.0/avr5/libgcc.a(_udivmodsi4.o)
 .text.libgcc.prologue
                0x0000000000000000        0x0 /usr/lib/gcc/avr/5.4.0/avr5/libgcc.a(_udivmodsi4.o)
 .text.libgcc.builtins
                0x0000000000000000        0x0 /usr/lib/gcc/avr/5.4.0/avr5/libgcc.a(_udivmodsi4.o)
 .text.libgcc.fmul
                0x0000000000000000        0x0 /usr/lib/gcc/avr/5.4.0/avr5/libgcc.a(_udivmodsi4.o)
 .text.libgcc.fixed
                0x0000000000000000        0x0 /usr/lib/gcc/avr/5.4.0/avr5/libgcc.a(_udivmodsi4.o)
 .text          0x0000000000000000        0x0 /usr/lib/gcc/avr/5.4.0/avr5/libgcc.a(_divmodsi4.o)
 .data          0x0000000000000000        0x0 /usr/lib/gcc/avr/5.4.0/avr5/libgcc.a(_divmodsi4.o)
 .bss           0x0000000000000000        0x0 /usr/lib/gcc/avr/5.4.0/avr5/libgcc.a(_divmodsi4.o)
 .text.libgcc.mul
                0x0000000000000000        0x0 /usr/lib/gcc/avr/5.4.0/avr5/libgcc.a(_divmodsi4.o)
 .text.libgcc   0x0000000000000000        0x0 /usr/lib/gcc/avr/5.4.0/avr5/libgcc.a(_divmodsi4.o)
 .text.libgcc.prologue
                0x0000000000000000        0x0 /usr/lib/gcc/avr/5.4.0/avr5/libgcc.a(_divmodsi4.o)
 .text.libgcc.builtins
                0x0000000000000000        0x0 /usr/lib/gcc/avr/5.4.0/avr5/libgcc.a(_divmodsi4.o)
 .text.libgcc.fmul
                0x0000000000000000        0x0 /usr/lib/gcc/avr/5.4.0/avr5/libgcc.a(_divmodsi4.o)
 .text.libgcc.fixed
                0x0000000000000000        0x0 /usr/lib/gcc/avr/5.4.0/avr5/libgcc.a(_divmodsi4.o)
 .text          0x0000000000000000        0x0 /usr/lib/gcc/avr/5.4.0/avr5/libgcc.a(_negsi2.o)
 .data          0x0000000000000000        0x0 /usr/lib/gcc/avr/5.4.0/avr5/libgcc.a(_negsi2.o)
 .bss           0x0000000000000000        0x0 /usr/lib/gcc/avr/5.4.0/avr5/libgcc.a(_negsi2.o)
 .text.libgcc.mul
                0x0000000000000000        0x0 /usr/lib/gcc/avr/5.4.0/avr5/libgcc.a(_negsi2.o)
 .text.libgcc   0x0000000000000000        0x0 /usr/lib/gcc/avr/5.4.0/avr5/libgcc.a(_negsi2.o)
 .text.libgcc.prologue
                0x0000000000000000        0x0 /usr/lib/gcc/avr/5.4.0/avr5/libgcc.a(_negsi2.o)
 .text.libgcc.builtins
                0x0000000000000000        0x0 /usr/lib/gcc/avr/5.4.0/avr5/libgcc.a(_negsi2.o)
 .text.libgcc.fmul
                0x0000000000000000        0x0 /usr/lib/gcc/avr/5.4.0/avr5/libgcc.a(_negsi2.o)
 .text.libgcc.fixed
                0x0000000000000000        0x0 /usr/lib/gcc/avr/5.4.0/avr5/libgcc.a(_negsi2.o)
 .text          0x0000000000000000        0x0 /usr/lib/gcc/avr/5.4.0/avr5/libgcc.a(_exit.o)
 .data          0x0000000000000000        0x0 /usr/lib/gcc/avr/5.4.0/avr5/libgcc.a(_exit.o)
 .bss           0x0000000000000000        0x0 /usr/lib/gcc/avr/5.4.0/avr5/libgcc.a(_exit.o)
 .text.libgcc.mul
                0x0000000000000000        0x0 /usr/lib/gcc/avr/5.4.0/avr5/libgcc.a(_exit.o)
 .text.libgcc.div
                0x0000000000000000        0x0 /usr/lib/gcc/avr/5.4.0/avr5/libgcc.a(_exit.o)
 .text.libgcc   0x0000000000000000        0x0 /usr/lib/gcc/avr/5.4.0/avr5/libgcc.a(_exit.o)
 .text.libgcc.prologue
                0x0000000000000000        0x0 /usr/lib/gcc/avr/5.4.0/avr5/libgcc.a(_exit.o)
 .text.libgcc.builtins
                0x0000000000000000        0x0 /usr/lib/gcc/avr/5.4.0/avr5/libgcc.a(_exit.o)
 .text.libgcc.fmul
                0x0000000000000000        0x0 /usr/lib/gcc/avr/5.4.0/avr5/libgcc.a(_exit.o)
 .text.libgcc.fixed
                0x0000000000000000        0x0 /usr/lib/gcc/avr/5.4.0/avr5/libgcc.a(_exit.o)
 .text          0x0000000000000000        0x0 /usr/lib/gcc/avr/5.4.0/avr5/libgcc.a(_tablejump2.o)
 .data          0x0000000000000000        0x0 /usr/lib/gcc/avr/5.4.0/avr5/libgcc.a(_tablejump2.o)
 .bss           0x0000000000000000        0x0 /usr/lib/gcc/avr/5.4.0/avr5/libgcc.a(_tablejump2.o)
 .text.libgcc.mul
                0x0000000000000000        0x0 /usr/lib/gcc/avr/5.4.0/avr5/libgcc.a(_tablejump2.o)
 .text.libgcc.div
                0x0000000000000000        0x0 /usr/lib/gcc/avr/5.4.0/avr5/libgcc.a(_tablejump2.o)
 .text.libgcc.prologue
                0x0000000000000000        0x0 /usr/lib/gcc/avr/5.4.0/avr5/libgcc.a(_tablejump2.o)
 .text.libgcc.builtins
                0x0000000000000000        0x0 /usr/lib/gcc/avr/5.4.0/avr5/libgcc.a(_tablejump2.o)
 .text.libgcc.fmul
                0x0000000000000000        0x0 /usr/lib/gcc/avr/5.4.0/avr5/libgcc.a(_tablejump2.o)
 .text.libgcc.fixed
                0x0000000000000000        0x0 /usr/lib/gcc/avr/5.4.0/avr5/libgcc.a(_tablejump2.o)
 .text          0x0000000000000000        0x0 /usr/lib/gcc/avr/5.4.0/avr5/libgcc.a(_copy_data.o)
 .data          0x0000000000000000        0x0 /usr/lib/gcc/avr/5.4.0/avr5/libgcc.a(_copy_data.o)
 .bss           0x0000000000000000        0x0 /usr/lib/gcc/avr/5.4.0/avr5/libgcc.a(_copy_data.o)
 .text.libgcc.mul
                0x0000000000000000        0x0 /usr/lib/gcc/avr/5.4.0/avr5/libgcc.a(_copy_data.o)
 .text.libgcc.div
                0x0000000000000000        0x0 /usr/lib/gcc/avr/5.4.0/avr5/libgcc.a(_copy_data.o)
 .text.libgcc   0x0000000000000000        0x0 /usr/lib/gcc/avr/5.4.0/avr5/libgcc.a(_copy_data.o)
 .text.libgcc.prologue
                0x0000000000000000        0x0 /usr/lib/gcc/avr/5.4.0/avr5/libgcc.a(_copy_data.o)
 .text.libgcc.builtins
                0x0000000000000000        0x0 /usr/lib/gcc/avr/5.4.0/avr5/libgcc.a(_copy_data.o)
 .text.libgcc.fmul
                0x0000000000000000        0x0 /usr/lib/gcc/avr/5.4.0/avr5/libgcc.a(_copy_data.o)
 .text.libgcc.fixed
                0x0000000000000000        0x0 /usr/lib/gcc/avr/5.4.0/avr5/libgcc.a(_copy_data.o)
 .text          0x0000000000000000        0x0 /usr/lib/gcc/avr/5.4.0/avr5/libgcc.a(_clear_bss.o)
 .data          0x0000000000000000        0x0 /usr/lib/gcc/avr/5.4.0/avr5/libgcc.a(_clear_bss.o)
 .bss           0x0000000000000000        0x0 /usr/lib/gcc/avr/5.4.0/avr5/libgcc.a(_clear_bss.o)
 .text.libgcc.mul
                0x0000000000000000        0x0 /usr/lib/gcc/avr/5.4.0/avr5/libgcc.a(_clear_bss.o)
 .text.libgcc.div
                0x0000000000000000        0x0 /usr/lib/gcc/avr/5.4.0/avr5/libgcc.a(_clear_bss.o)
 .text.libgcc   0x0000000000000000        0x0 /usr/lib/gcc/avr/5.4.0/avr5/libgcc.a(_clear_bss.o)
 .text.libgcc.prologue
                0x0000000000000000        0x0 /usr/lib/gcc/avr/5.4.0/avr5/libgcc.a(_clear_bss.o)
 .text.libgcc.builtins
                0x0000000000000000        0x0 /usr/lib/gcc/avr/5.4.0/avr5/libgcc.a(_clear_bss.o)
 .text.libgcc.fmul
                0x0000000000000000        0x0 /usr/lib/gcc/avr/5.4.0/avr5/libgcc.a(_clear_bss.o)
 .text.libgcc.fixed
                0x0000000000000000        0x0 /usr/lib/gcc/avr/5.4.0/avr5/libgcc.a(_clear_bss.o)
 .text          0x0000000000000000        0x0 /usr/lib/gcc/avr/5.4.0/avr5/libgcc.a(_umulhisi3.o)
 .data          0x0000000000000000        0x0 /usr/lib/gcc/avr/5.4.0/avr5/libgcc.a(_umulhisi3.o)
 .bss           0x0000000000000000        0x0 /usr/lib/gcc/avr/5.4.0/avr5/libgcc.a(_umulhisi3.o)
 .text.libgcc.div
                0x0000000000000000        0x0 /usr/lib/gcc/avr/5.4.0/avr5/libgcc.a(_umulhisi3.o)
 .text.libgcc   0x0000000000000000        0x0 /usr/lib/gcc/avr/5.4.0/avr5/libgcc.a(_umulhisi3.o)
 .text.libgcc.prologue
                0x0000000000000000        0x0 /usr/lib/gcc/avr/5.4.0/avr5/libgcc.a(_umulhisi3.o)
 .text.libgcc.builtins
                0x0000000000000000        0x0 /usr/lib/gcc/avr/5.4.0/avr5/libgcc.a(_umulhisi3.o)
 .text.libgcc.fmul
                0x0000000000000000        0x0 /usr/lib/gcc/avr/5.4.0/avr5/libgcc.a(_umulhisi3.o)
 .text.libgcc.fixed
                0x0000000000000000        0x0 /usr/lib/gcc/avr/5.4.0/avr5/libgcc.a(_umulhisi3.o)
 .text          0x0000000000000000        0x0 /usr/lib/gcc/avr/5.4.0/avr5/libgcc.a(_usmulhisi3.o)
 .data          0x0000000000000000        0x0 /usr/lib/gcc/avr/5.4.0/avr5/libgcc.a(_usmulhisi3.o)
 .bss           0x0000000000000000        0x0 /usr/lib/gcc/avr/5.4.0/avr5/libgcc.a(_usmulhisi3.o)
 .text.libgcc.div
                0x0000000000000000        0x0 /usr/lib/gcc/avr/5.4.0/avr5/libgcc.a(_usmulhisi3.o)
 .text.libgcc   0x0000000000000000        0x0 /usr/lib/gcc/avr/5.4.0/avr5/libgcc.a(_usmulhisi3.o)
 .text.libgcc.prologue
                0x0000000000000000        0x0 /usr/lib/gcc/avr/5.4.0/avr5/libgcc.a(_usmulhisi3.o)
 .text.libgcc.builtins
                0x0000000000000000        0x0 /usr/lib/gcc/avr/5.4.0/avr5/libgcc.a(_usmulhisi3.o)
 .text.libgcc.fmul
                0x0000000000000000        0x0 /usr/lib/gcc/avr/5.4.0/avr5/libgcc.a(_usmulhisi3.o)
 .text.libgcc.fixed
                0x0000000000000000        0x0 /usr/lib/gcc/avr/5.4.0/avr5/libgcc.a(_usmulhisi3.o)
 .text          0x0000000000000000        0x0 /usr/lib/gcc/avr/5.4.0/avr5/libgcc.a(_muluhisi3.o)
 .data          0x0000000000000000        0x0 /usr/lib/gcc/avr/5.4.0/avr5/libgcc.a(_muluhisi3.o)
 .bss           0x0000000000000000        0x0 /usr/lib/gcc/avr/5.4.0/avr5/libgcc.a(_muluhisi3.o)
 .text.libgcc.div
                0x0000000000000000        0x0 /usr/lib/gcc/avr/5.4.0/avr5/libgcc.a(_muluhisi3.o)
 .text.libgcc   0x0000000000000000        0x0 /usr/lib/gcc/avr/5.4.0/avr5/libgcc.a(_muluhisi3.o)
 .text.libgcc.prologue
                0x0000000000000000        0x0 /usr/lib/gcc/avr/5.4.0/avr5/libgcc.a(_muluhisi3.o)
 .text.libgcc.builtins
                0x0000000000000000        0x0 /usr/lib/gcc/avr/5.4.0/avr5/libgcc.a(_muluhisi3.o)
 .text.libgcc.fmul
                0x0000000000000000        0x0 /usr/lib/gcc/avr/5.4.0/avr5/libgcc.a(_muluhisi3.o)
 .text.libgcc.fixed
                0x0000000000000000        0x0 /usr/lib/gcc/avr/5.4.0/avr5/libgcc.a(_muluhisi3.o)
 .text          0x0000000000000000        0x0 /usr/lib/gcc/avr/5.4.0/avr5/libgcc.a(_udivdi3.o)
 .data          0x0000000000000000        0x0 /usr/lib/gcc/avr/5.4.0/avr5/libgcc.a(_udivdi3.o)
 .bss           0x0000000000000000        0x0 /usr/lib/gcc/avr/5.4.0/avr5/libgcc.a(_udivdi3.o)
 .text.libgcc.mul
                0x0000000000000000        0x0 /usr/lib/gcc/avr/5.4.0/avr5/libgcc.a(_udivdi3.o)
 .text.libgcc   0x0000000000000000        0x0 /usr/lib/gcc/avr/5.4.0/avr5/libgcc.a(_udivdi3.o)
 .text.libgcc.prologue
                0x0000000000000000        0x0 /usr/lib/gcc/avr/5.4.0/avr5/libgcc.a(_udivdi3.o)
 .text.libgcc.builtins
                0x0000000000000000        0x0 /usr/lib/gcc/avr/5.4.0/avr5/libgcc.a(_udivdi3.o)
 .text.libgcc.fmul
                0x0000000000000000        0x0 /usr/lib/gcc/avr/5.4.0/avr5/libgcc.a(_udivdi3.o)
 .text.libgcc.fixed
                0x0000000000000000        0x0 /usr/lib/gcc/avr/5.4.0/avr5/libgcc.a(_udivdi3.o)
 .text          0x0000000000000000        0x0 /usr/lib/gcc/avr/5.4.0/avr5/libgcc.a(_udivmod64.o)
 .data          0x0000000000000000        0x0 /usr/lib/gcc/avr/5.4.0/avr5/libgcc.a(_udivmod64.o)
 .bss           0x0000000000000000        0x0 /usr/lib/gcc/avr/5.4.0/avr5/libgcc.a(_udivmod64.o)
 .text.libgcc.mul
                0x0000000000000000        0x0 /usr/lib/gcc/avr/5.4.0/avr5/libgcc.a(_udivmod64.o)
 .text.libgcc   0x0000000000000000        0x0 /usr/lib/gcc/avr/5.4.0/avr5/libgcc.a(_udivmod64.o)
 .text.libgcc.prologue
                0x0000000000000000        0x0 /usr/lib/gcc/avr/5.4.0/avr5/libgcc.a(_udivmod64.o)
 .text.libgcc.builtins
                0x0000000000000000        0x0 /usr/lib/gcc/avr/5.4.0/avr5/libgcc.a(_udivmod64.o)
 .text.libgcc.fmul
                0x0000000000000000        0x0 /usr/lib/gcc/avr/5.4.0/avr5/libgcc.a(_udivmod64.o)
 .text.libgcc.fixed
                0x0000000000000000        0x0 /usr/lib/gcc/avr/5.4.0/avr5/libgcc.a(_udivmod64.o)
 .text          0x0000000000000000        0x0 /usr/lib/gcc/avr/5.4.0/avr5/libgcc.a(_ashldi3.o)
 .data          0x0000000000000000        0x0 /usr/lib/gcc/avr/5.4.0/avr5/libgcc.a(_ashldi3.o)
 .bss           0x0000000000000000        0x0 /usr/lib/gcc/avr/5.4.0/avr5/libgcc.a(_ashldi3.o)
 .text.libgcc.mul
                0x0000000000000000        0x0 /usr/lib/gcc/avr/5.4.0/avr5/libgcc.a(_ashldi3.o)
 .text.libgcc.div
                0x0000000000000000        0x0 /usr/lib/gcc/avr/5.4.0/avr5/libgcc.a(_ashldi3.o)
 .text.libgcc   0x0000000000000000        0x0 /usr/lib/gcc/avr/5.4.0/avr5/libgcc.a(_ashldi3.o)
 .text.libgcc.prologue
                0x0000000000000000        0x0 /usr/lib/gcc/avr/5.4.0/avr5/libgcc.a(_ashldi3.o)
 .text.libgcc.fmul
                0x0000000000000000        0x0 /usr/lib/gcc/avr/5.4.0/avr5/libgcc.a(_ashldi3.o)
 .text.libgcc.fixed
                0x0000000000000000        0x0 /usr/lib/gcc/avr/5.4.0/avr5/libgcc.a(_ashldi3.o)
 .text          0x0000000000000000        0x0 /usr/lib/gcc/avr/5.4.0/../../../avr/lib/avr5/libatmega328p.a(eerd_block.o)
 .data          0x0000000000000000        0x0 /usr/lib/gcc/avr/5.4.0/../../../avr/lib/avr5/libatmega328p.a(eerd_block.o)
 .bss           0x0000000000000000        0x0 /usr/lib/gcc/avr/5.4.0/../../../avr/lib/avr5/libatmega328p.a(eerd_block.o)
 .text          0x0000000000000000        0x0 /usr/lib/gcc/avr/5.4.0/../../../avr/lib/avr5/libatmega328p.a(eeupd_block.o)
 .data          0x0000000000000000        0x0 /usr/lib/gcc/avr/5.4.0/../../../avr/lib/avr5/libatmega328p.a(eeupd_block.o)
 .bss           0x0000000000000000        0x0 /usr/lib/gcc/avr/5.4.0/../../../avr/lib/avr5/libatmega328p.a(eeupd_block.o)
 .text          0x0000000000000000        0x0 /usr/lib/gcc/avr/5.4.0/../../../avr/lib/avr5/libatmega328p.a(eeupd_byte.o)
 .data          0x0000000000000000        0x0 /usr/lib/gcc/avr/5.4.0/../../../avr/lib/avr5/libatmega328p.a(eeupd_byte.o)
 .bss           0x0000000000000000        0x0 /usr/lib/gcc/avr/5.4.0/../../../avr/lib/avr5/libatmega328p.a(eeupd_byte.o)

Memory Configuration

Name             Origin             Length             Attributes
text             0x0000000000000000 0x0000000000008000 xr
data             0x0000000000800100 0x0000000000000800 rw !x
eeprom           0x0000000000810000 0x0000000000000400 rw !x
fuse             0x0000000000820000 0x0000000000000003 rw !x
lock             0x0000000000830000 0x0000000000000400 rw !x
signature        0x0000000000840000 0x0000000000000400 rw !x
user_signatures  0x0000000000850000 0x0000000000000400 rw !x
*default*        0x0000000000000000 0xffffffffffffffff

Linker script and memory map

Address of section .data set to 0x800100
LOAD /usr/lib/gcc/avr/5.4.0/../../../avr/lib/avr5/crtatmega328p.o
LOAD build/adc.o
LOAD build/clock.o
LOAD build/config_bus.o
LOAD build/eeprom_store.o
LOAD build/engine.o
LOAD build/interrupts.o
LOAD build/io.o
LOAD build/main.o
LOAD build/modes.o
LOAD build/tables.o
LOAD build/waveforms.o
START GROUP
LOAD /usr/lib/gcc/avr/5.4.0/avr5/libgcc.a
LOAD /usr/lib/gcc/avr/5.4.0/../../../avr/lib/avr5/libm.a
LOAD /usr/lib/gcc/avr/5.4.0/../../../avr/lib/avr5/libc.a
LOAD /usr/lib/gcc/avr/5.4.0/../../../avr/lib/avr5/libatmega328p.a
END GROUP
                0x0000000000000000                __TEXT_REGION_ORIGIN__ = DEFINED (__TEXT_REGION_ORIGIN__)?__TEXT_REGION_ORIGIN__:0x0
                [0x0000000000800100]                __DATA_REGION_ORIGIN__ = DEFINED (__DATA_REGION_ORIGIN__)?__DATA_REGION_ORIGIN__:0x800060
                [0x0000000000008000]                __TEXT_REGION_LENGTH__ = DEFINED (__TEXT_REGION_LENGTH__)?__TEXT_REGION_LENGTH__:0x20000
                [0x0000000000000800]                __DATA_REGION_LENGTH__ = DEFINED (__DATA_REGION_LENGTH__)?__DATA_REGION_LENGTH__:0xffa0
                [0x0000000000000400]                __EEPROM_REGION_LENGTH__ = DEFINED (__EEPROM_REGION_LENGTH__)?__EEPROM_REGION_LENGTH__:0x10000
                [0x0000000000000003]                __FUSE_REGION_LENGTH__ = DEFINED (__FUSE_REGION_LENGTH__)?__FUSE_REGION_LENGTH__:0x400
                0x0000000000000400                __LOCK_REGION_LENGTH__ = DEFINED (__LOCK_REGION_LENGTH__)?__LOCK_REGION_LENGTH__:0x400
                0x0000000000000400                __SIGNATURE_REGION_LENGTH__ = DEFINED (__SIGNATURE_REGION_LENGTH__)?__SIGNATURE_REGION_LENGTH__:0x400
                0x0000000000000400                __USER_SIGNATURE_REGION_LENGTH__ = DEFINED (__USER_SIGNATURE_REGION_LENGTH__)?__USER_SIGNATURE_REGION_LENGTH__:0x400

.hash
 *(.hash)

.dynsym
 *(.dynsym)

.dynstr
 *(.dynstr)

.gnu.version
 *(.gnu.version)

.gnu.version_d
 *(.gnu.version_d)

.gnu.version_r
 *(.gnu.version_r)

.rel.init
 *(.rel.init)

.rela.init
 *(.rela.init)

.rel.text
 *(.rel.text)
 *(.rel.text.*)
 *(.rel.gnu.linkonce.t*)

.rela.text
 *(.rela.text)
 *(.rela.text.*)
 *(.rela.gnu.linkonce.t*)

.rel.fini
 *(.rel.fini)

.rela.fini
 *(.rela.fini)

.rel.rodata
 *(.rel.rodata)
 *(.rel.rodata.*)
 *(.rel.gnu.linkonce.r*)

.rela.rodata
 *(.rela.rodata)
 *(.rela.rodata.*)
 *(.rela.gnu.linkonce.r*)

.rel.data
 *(.rel.data)
 *(.rel.data.*)
 *(.rel.gnu.linkonce.d*)

.rela.data
 *(.rela.data)
 *(.rela.data.*)
 *(.rela.gnu.linkonce.d*)

.rel.ctors
 *(.rel.ctors)

.rela.ctors
 *(.rela.ctors)

.rel.dtors
 *(.rel.dtors)

.rela.dtors
 *(.rela.dtors)

.rel.got
 *(.rel.got)

.rela.got
 *(.rela.got)

.rel.bss
 *(.rel.bss)

.rela.bss
 *(.rela.bss)

.rel.plt
 *(.rel.plt)

.rela.plt
 *(.rela.plt)

.text           0x0000000000000000     0x2fcc
 *(.vectors)
 .vectors       0x0000000000000000       0x68 /usr/lib/gcc/avr/5.4.0/../../../avr/lib/avr5/crtatmega328p.o
                0x0000000000000000                __vectors
                0x0000000000000000                __vector_default
 *(.vectors)
 *(.progmem.gcc*)
 .progmem.gcc_sw_table.mt_engine_service_tick_isr
                0x0000000000000068       0x12 build/engine.o
 .progmem.gcc_sw_table.mt_modes_control_update
                0x000000000000007a        0xe build/modes.o
 .progmem.gcc_sw_table.mt_waveform_render
                0x0000000000000088       0x12 build/waveforms.o
                0x000000000000009a                . = ALIGN (0x2)
                0x000000000000009a                __trampolines_start = .
 *(.trampolines)
 .trampolines   0x000000000000009a        0x0 linker stubs
 *(.trampolines*)
                0x000000000000009a                __trampolines_end = .
 *libprintf_flt.a:*(.progmem.data)
 *libc.a:*(.progmem.data)
 *(.progmem*)
 .progmem.data.g_envelope_step_table
                0x000000000000009a      0x400 build/tables.o
 .progmem.data.g_rate_increment_table
                0x000000000000049a      0x400 build/tables.o
 .progmem.data.g_sine_table
                0x000000000000089a      0x100 build/tables.o
                0x000000000000099a                . = ALIGN (0x2)
 *(.jumptables)
 *(.jumptables*)
 *(.lowtext)
 *(.lowtext*)
                0x000000000000099a                __ctors_start = .
 *(.ctors)
                0x000000000000099a                __ctors_end = .
                0x000000000000099a                __dtors_start = .
 *(.dtors)
                0x000000000000099a                __dtors_end = .
 SORT(*)(.ctors)
 SORT(*)(.dtors)
 *(.init0)
 .init0         0x000000000000099a        0x0 /usr/lib/gcc/avr/5.4.0/../../../avr/lib/avr5/crtatmega328p.o
                0x000000000000099a                __init
 *(.init0)
 *(.init1)
 *(.init1)
 *(.init2)
 .init2         0x000000000000099a        0xc /usr/lib/gcc/avr/5.4.0/../../../avr/lib/avr5/crtatmega328p.o
 *(.init2)
 *(.init3)
 *(.init3)
 *(.init4)
 .init4         0x00000000000009a6       0x16 /usr/lib/gcc/avr/5.4.0/avr5/libgcc.a(_copy_data.o)
                0x00000000000009a6                __do_copy_data
 .init4         0x00000000000009bc       0x10 /usr/lib/gcc/avr/5.4.0/avr5/libgcc.a(_clear_bss.o)
                0x00000000000009bc                __do_clear_bss
 *(.init4)
 *(.init5)
 *(.init5)
 *(.init6)
 *(.init6)
 *(.init7)
 *(.init7)
 *(.init8)
 *(.init8)
 *(.init9)
 .init9         0x00000000000009cc        0x8 /usr/lib/gcc/avr/5.4.0/../../../avr/lib/avr5/crtatmega328p.o
 *(.init9)
 *(.text)
 .text          0x00000000000009d4        0x4 /usr/lib/gcc/avr/5.4.0/../../../avr/lib/avr5/crtatmega328p.o
                0x00000000000009d4                __vector_22
                0x00000000000009d4                __vector_24
                0x00000000000009d4                __vector_12
                0x00000000000009d4                __bad_interrupt
                0x00000000000009d4                __vector_6
                0x00000000000009d4                __vector_23
                0x00000000000009d4                __vector_25
                0x00000000000009d4                __vector_11
                0x00000000000009d4                __vector_13
                0x00000000000009d4                __vector_19
                0x00000000000009d4                __vector_7
                0x00000000000009d4                __vector_4
                0x00000000000009d4                __vector_2
                0x00000000000009d4                __vector_15
                0x00000000000009d4                __vector_8
                0x00000000000009d4                __vector_14
                0x00000000000009d4                __vector_10
                0x00000000000009d4                __vector_16
                0x00000000000009d4                __vector_18
                0x00000000000009d4                __vector_20
                0x00000000000009d8                . = ALIGN (0x2)
 *(.text.*)
 .text.mt_adc_init
                0x00000000000009d8       0x44 build/adc.o
                0x00000000000009d8                mt_adc_init
 .text.mt_adc_conversion_complete_isr
                0x0000000000000a1c       0xe2 build/adc.o
                0x0000000000000a1c                mt_adc_conversion_complete_isr
 .text.mt_adc_get_snapshot
                0x0000000000000afe       0x28 build/adc.o
                0x0000000000000afe                mt_adc_get_snapshot
 .text.mt_clock_init
                0x0000000000000b26       0x54 build/clock.o
                0x0000000000000b26                mt_clock_init
 .text.mt_clock_service_tick_isr
                0x0000000000000b7a       0x28 build/clock.o
                0x0000000000000b7a                mt_clock_service_tick_isr
 .text.mt_clock_external_edge_isr
                0x0000000000000ba2       0x8e build/clock.o
                0x0000000000000ba2                mt_clock_external_edge_isr
 .text.mt_clock_get_external_increment
                0x0000000000000c30       0xaa build/clock.o
                0x0000000000000c30                mt_clock_get_external_increment
 .text.mt_clock_take_new_period_flag
                0x0000000000000cda       0x18 build/clock.o
                0x0000000000000cda                mt_clock_take_new_period_flag
 .text.read_register_isr
                0x0000000000000cf2       0x36 build/config_bus.o
 .text.mt_config_bus_restore_defaults
                0x0000000000000d28       0x74 build/config_bus.o
                0x0000000000000d28                mt_config_bus_restore_defaults
 .text.mt_config_bus_init
                0x0000000000000d9c       0x32 build/config_bus.o
                0x0000000000000d9c                mt_config_bus_init
 .text.mt_config_bus_chip_select_changed_isr
                0x0000000000000dce       0x16 build/config_bus.o
                0x0000000000000dce                mt_config_bus_chip_select_changed_isr
 .text.mt_config_bus_spi_transfer_isr
                0x0000000000000de4       0x84 build/config_bus.o
                0x0000000000000de4                mt_config_bus_spi_transfer_isr
 .text.mt_config_bus_write_register
                0x0000000000000e68       0x38 build/config_bus.o
                0x0000000000000e68                mt_config_bus_write_register
 .text.mt_config_bus_service
                0x0000000000000ea0       0x5c build/config_bus.o
                0x0000000000000ea0                mt_config_bus_service
 .text.mt_config_bus_copy_persistent_registers
                0x0000000000000efc       0x20 build/config_bus.o
                0x0000000000000efc                mt_config_bus_copy_persistent_registers
 .text.mt_config_bus_load_persistent_registers
                0x0000000000000f1c       0x20 build/config_bus.o
                0x0000000000000f1c                mt_config_bus_load_persistent_registers
 .text.mt_config_bus_take_save_request
                0x0000000000000f3c       0x18 build/config_bus.o
                0x0000000000000f3c                mt_config_bus_take_save_request
 .text.mt_config_bus_take_restore_request
                0x0000000000000f54       0x18 build/config_bus.o
                0x0000000000000f54                mt_config_bus_take_restore_request
 .text.mt_config_bus_set_status
                0x0000000000000f6c        0x6 build/config_bus.o
                0x0000000000000f6c                mt_config_bus_set_status
 .text.mt_eeprom_load
                0x0000000000000f72       0x7a build/eeprom_store.o
                0x0000000000000f72                mt_eeprom_load
 .text.mt_eeprom_save
                0x0000000000000fec       0x68 build/eeprom_store.o
                0x0000000000000fec                mt_eeprom_save
 .text.pseudo_random_u16
                0x0000000000001054       0x80 build/engine.o
 .text.advance_phase
                0x00000000000010d4       0x50 build/engine.o
 .text.service_envelope
                0x0000000000001124       0xb0 build/engine.o
 .text.mt_engine_commit_config
                0x00000000000011d4       0x2c build/engine.o
                0x00000000000011d4                mt_engine_commit_config
 .text.mt_engine_init
                0x0000000000001200      0x13c build/engine.o
                0x0000000000001200                mt_engine_init
 .text.mt_engine_trigger_isr
                0x000000000000133c        0xe build/engine.o
                0x000000000000133c                mt_engine_trigger_isr
 .text.mt_engine_external_clock_edge_isr
                0x000000000000134a        0x8 build/engine.o
                0x000000000000134a                mt_engine_external_clock_edge_isr
 .text.mt_engine_service_tick_isr
                0x0000000000001352      0x766 build/engine.o
                0x0000000000001352                mt_engine_service_tick_isr
 .text.mt_engine_take_control_update_due
                0x0000000000001ab8       0x18 build/engine.o
                0x0000000000001ab8                mt_engine_take_control_update_due
 .text.mt_engine_get_status
                0x0000000000001ad0        0x6 build/engine.o
                0x0000000000001ad0                mt_engine_get_status
 .text.__vector_9
                0x0000000000001ad6       0x48 build/interrupts.o
                0x0000000000001ad6                __vector_9
 .text.__vector_21
                0x0000000000001b1e       0x48 build/interrupts.o
                0x0000000000001b1e                __vector_21
 .text.__vector_1
                0x0000000000001b66       0x4e build/interrupts.o
                0x0000000000001b66                __vector_1
 .text.__vector_3
                0x0000000000001bb4       0x48 build/interrupts.o
                0x0000000000001bb4                __vector_3
 .text.__vector_5
                0x0000000000001bfc       0x48 build/interrupts.o
                0x0000000000001bfc                __vector_5
 .text.__vector_17
                0x0000000000001c44       0x48 build/interrupts.o
                0x0000000000001c44                __vector_17
 .text.mt_io_init
                0x0000000000001c8c       0x8a build/io.o
                0x0000000000001c8c                mt_io_init
 .text.mt_io_read_mode_bits
                0x0000000000001d16        0xe build/io.o
                0x0000000000001d16                mt_io_read_mode_bits
 .text.mt_io_write_pwm_isr
                0x0000000000001d24       0x1e build/io.o
                0x0000000000001d24                mt_io_write_pwm_isr
 .text.mt_io_pcint0_isr
                0x0000000000001d42       0x36 build/io.o
                0x0000000000001d42                mt_io_pcint0_isr
 .text.mt_io_pcint2_isr
                0x0000000000001d78       0x20 build/io.o
                0x0000000000001d78                mt_io_pcint2_isr
 .text.startup.main
                0x0000000000001d98       0x50 build/main.o
                0x0000000000001d98                main
 .text.modulated_register_value
                0x0000000000001de8       0xa4 build/modes.o
 .text.mt_modes_init
                0x0000000000001e8c       0x12 build/modes.o
                0x0000000000001e8c                mt_modes_init
 .text.mt_modes_control_update
                0x0000000000001e9e      0xbc2 build/modes.o
                0x0000000000001e9e                mt_modes_control_update
 .text.mt_table_sine_u8
                0x0000000000002a60        0xc build/tables.o
                0x0000000000002a60                mt_table_sine_u8
 .text.mt_table_rate_increment
                0x0000000000002a6c       0x18 build/tables.o
                0x0000000000002a6c                mt_table_rate_increment
 .text.mt_table_envelope_step
                0x0000000000002a84       0x18 build/tables.o
                0x0000000000002a84                mt_table_envelope_step
 .text.mt_waveform_render
                0x0000000000002a9c      0x1ca build/waveforms.o
                0x0000000000002a9c                mt_waveform_render
 .text.mt_waveform_apply_level
                0x0000000000002c66       0x50 build/waveforms.o
                0x0000000000002c66                mt_waveform_apply_level
 .text.mt_waveform_shape_envelope
                0x0000000000002cb6       0x8e build/waveforms.o
                0x0000000000002cb6                mt_waveform_shape_envelope
 .text.libgcc.mul
                0x0000000000002d44       0x20 /usr/lib/gcc/avr/5.4.0/avr5/libgcc.a(_mulsi3.o)
                0x0000000000002d44                __mulsi3
 .text.libgcc.div
                0x0000000000002d64       0x18 /usr/lib/gcc/avr/5.4.0/avr5/libgcc.a(_udivmodqi4.o)
                0x0000000000002d64                __udivmodqi4
 .text.libgcc.div
                0x0000000000002d7c       0x28 /usr/lib/gcc/avr/5.4.0/avr5/libgcc.a(_udivmodhi4.o)
                0x0000000000002d7c                __udivmodhi4
 .text.libgcc.div
                0x0000000000002da4       0x44 /usr/lib/gcc/avr/5.4.0/avr5/libgcc.a(_udivmodsi4.o)
                0x0000000000002da4                __udivmodsi4
 .text.libgcc.div
                0x0000000000002de8       0x2e /usr/lib/gcc/avr/5.4.0/avr5/libgcc.a(_divmodsi4.o)
                0x0000000000002de8                __divmodsi4
 .text.libgcc.div
                0x0000000000002e16       0x10 /usr/lib/gcc/avr/5.4.0/avr5/libgcc.a(_negsi2.o)
                0x0000000000002e16                __negsi2
 .text.libgcc   0x0000000000002e26        0xc /usr/lib/gcc/avr/5.4.0/avr5/libgcc.a(_tablejump2.o)
                0x0000000000002e26                __tablejump2__
 .text.libgcc.mul
                0x0000000000002e32       0x1e /usr/lib/gcc/avr/5.4.0/avr5/libgcc.a(_umulhisi3.o)
                0x0000000000002e32                __umulhisi3
 .text.libgcc.mul
                0x0000000000002e50        0xe /usr/lib/gcc/avr/5.4.0/avr5/libgcc.a(_usmulhisi3.o)
                0x0000000000002e50                __usmulhisi3
                0x0000000000002e54                __usmulhisi3_tail
 .text.libgcc.mul
                0x0000000000002e5e       0x16 /usr/lib/gcc/avr/5.4.0/avr5/libgcc.a(_muluhisi3.o)
                0x0000000000002e5e                __muluhisi3
 .text.libgcc.div
                0x0000000000002e74       0x1c /usr/lib/gcc/avr/5.4.0/avr5/libgcc.a(_udivdi3.o)
                0x0000000000002e74                __umoddi3
                0x0000000000002e78                __udivdi3
                0x0000000000002e7a                __udivdi3_umoddi3
 .text.libgcc.div
                0x0000000000002e90       0xa2 /usr/lib/gcc/avr/5.4.0/avr5/libgcc.a(_udivmod64.o)
                0x0000000000002e90                __udivmod64
 .text.libgcc.builtins
                0x0000000000002f32       0x32 /usr/lib/gcc/avr/5.4.0/avr5/libgcc.a(_ashldi3.o)
                0x0000000000002f32                __ashldi3
 .text.avr-libc
                0x0000000000002f64       0x20 /usr/lib/gcc/avr/5.4.0/../../../avr/lib/avr5/libatmega328p.a(eerd_block.o)
                0x0000000000002f64                eeprom_read_block
                0x0000000000002f68                eeprom_read_blraw
 .text.avr-libc
                0x0000000000002f84       0x20 /usr/lib/gcc/avr/5.4.0/../../../avr/lib/avr5/libatmega328p.a(eeupd_block.o)
                0x0000000000002f84                eeprom_update_block
 .text.avr-libc
                0x0000000000002fa4       0x24 /usr/lib/gcc/avr/5.4.0/../../../avr/lib/avr5/libatmega328p.a(eeupd_byte.o)
                0x0000000000002fa4                eeprom_update_byte
                0x0000000000002fa6                eeprom_update_r18
                0x0000000000002fc8                . = ALIGN (0x2)
 *(.fini9)
 .fini9         0x0000000000002fc8        0x0 /usr/lib/gcc/avr/5.4.0/avr5/libgcc.a(_exit.o)
                0x0000000000002fc8                exit
                0x0000000000002fc8                _exit
 *(.fini9)
 *(.fini8)
 *(.fini8)
 *(.fini7)
 *(.fini7)
 *(.fini6)
 *(.fini6)
 *(.fini5)
 *(.fini5)
 *(.fini4)
 *(.fini4)
 *(.fini3)
 *(.fini3)
 *(.fini2)
 *(.fini2)
 *(.fini1)
 *(.fini1)
 *(.fini0)
 .fini0         0x0000000000002fc8        0x4 /usr/lib/gcc/avr/5.4.0/avr5/libgcc.a(_exit.o)
 *(.fini0)
                0x0000000000002fcc                _etext = .

.data           0x0000000000800100       0x16 load address 0x0000000000002fcc
                0x0000000000800100                PROVIDE (__data_start, .)
 *(.data)
 *(.data*)
 *(.gnu.linkonce.d*)
 *(.rodata)
 *(.rodata*)
 .rodata.g_ratio_denominator
                0x0000000000800100        0xb build/modes.o
 .rodata.g_ratio_numerator
                0x000000000080010b        0xb build/modes.o
 *(.gnu.linkonce.r*)
                0x0000000000800116                . = ALIGN (0x2)
                0x0000000000800116                _edata = .
                0x0000000000800116                PROVIDE (__data_end, .)

.bss            0x0000000000800116      0x148
                0x0000000000800116                PROVIDE (__bss_start, .)
 *(.bss)
 *(.bss*)
 .bss.g_initialized_mask
                0x0000000000800116        0x1 build/adc.o
 .bss.g_discard_next
                0x0000000000800117        0x1 build/adc.o
 .bss.g_channel
                0x0000000000800118        0x1 build/adc.o
 .bss.g_filtered
                0x0000000000800119        0xc build/adc.o
 .bss.g_have_previous_edge
                0x0000000000800125        0x1 build/clock.o
 .bss.g_new_period
                0x0000000000800126        0x1 build/clock.o
 .bss.g_period_valid
                0x0000000000800127        0x1 build/clock.o
 .bss.g_period_ticks
                0x0000000000800128        0x4 build/clock.o
 .bss.g_last_edge_tick
                0x000000000080012c        0x4 build/clock.o
 .bss.g_tick_count
                0x0000000000800130        0x4 build/clock.o
 .bss.g_restore_request
                0x0000000000800134        0x1 build/config_bus.o
 .bss.g_save_request
                0x0000000000800135        0x1 build/config_bus.o
 .bss.g_command_byte
                0x0000000000800136        0x1 build/config_bus.o
 .bss.g_byte_index
                0x0000000000800137        0x1 build/config_bus.o
 .bss.g_selected
                0x0000000000800138        0x1 build/config_bus.o
 .bss.g_fifo_overflow
                0x0000000000800139        0x1 build/config_bus.o
 .bss.g_fifo_tail
                0x000000000080013a        0x1 build/config_bus.o
 .bss.g_fifo_head
                0x000000000080013b        0x1 build/config_bus.o
 .bss.g_fifo    0x000000000080013c        0x8 build/config_bus.o
 .bss.g_status  0x0000000000800144        0x1 build/config_bus.o
 .bss.g_registers
                0x0000000000800145       0x20 build/config_bus.o
 .bss.g_status  0x0000000000800165        0x1 build/engine.o
 .bss.g_control_divider
                0x0000000000800166        0x1 build/engine.o
 .bss.g_control_update_due
                0x0000000000800167        0x1 build/engine.o
 .bss.g_external_sync_pending
                0x0000000000800168        0x1 build/engine.o
 .bss.g_trigger_pending
                0x0000000000800169        0x1 build/engine.o
 .bss.g_prng_state
                0x000000000080016a        0x4 build/engine.o
 .bss.g_gate_phase
                0x000000000080016e       0x10 build/engine.o
 .bss.g_engine_state
                0x000000000080017e       0x1e build/engine.o
 .bss.g_active_config_index
                0x000000000080019c        0x1 build/engine.o
 .bss.g_render_config
                0x000000000080019d       0xbc build/engine.o
 .bss.g_previous_pind
                0x0000000000800259        0x1 build/io.o
 .bss.g_previous_pinb
                0x000000000080025a        0x1 build/io.o
 .bss.g_mode_stable_count
                0x000000000080025b        0x1 build/modes.o
 .bss.g_last_raw_mode
                0x000000000080025c        0x1 build/modes.o
 .bss.g_active_mode
                0x000000000080025d        0x1 build/modes.o
 *(COMMON)
                0x000000000080025e                PROVIDE (__bss_end, .)
                0x0000000000002fcc                __data_load_start = LOADADDR (.data)
                0x0000000000002fe2                __data_load_end = (__data_load_start + SIZEOF (.data))

.noinit         0x000000000080025e        0x0
                [!provide]                        PROVIDE (__noinit_start, .)
 *(.noinit*)
                [!provide]                        PROVIDE (__noinit_end, .)
                0x000000000080025e                _end = .
                [!provide]                        PROVIDE (__heap_start, .)

.eeprom         0x0000000000810000       0x21
 *(.eeprom*)
 .eeprom        0x0000000000810000       0x21 build/eeprom_store.o
                0x0000000000810021                __eeprom_end = .

.fuse
 *(.fuse)
 *(.lfuse)
 *(.hfuse)
 *(.efuse)

.lock
 *(.lock*)

.signature
 *(.signature*)

.user_signatures
 *(.user_signatures*)

.stab           0x0000000000000000     0x63cc
 *(.stab)
 .stab          0x0000000000000000      0x870 build/adc.o
 .stab          0x0000000000000870      0x7d4 build/clock.o
                                        0x9a8 (size before relaxing)
 .stab          0x0000000000001044      0xfb4 build/config_bus.o
                                       0x1338 (size before relaxing)
 .stab          0x0000000000001ff8      0x540 build/eeprom_store.o
                                        0x7c8 (size before relaxing)
 .stab          0x0000000000002538     0x1338 build/engine.o
                                       0x15c0 (size before relaxing)
 .stab          0x0000000000003870      0x4f8 build/interrupts.o
                                        0x780 (size before relaxing)
 .stab          0x0000000000003d68      0x78c build/io.o
                                        0xa20 (size before relaxing)
 .stab          0x00000000000044f4      0x408 build/main.o
                                        0x6a8 (size before relaxing)
 .stab          0x00000000000048fc      0xe94 build/modes.o
                                       0x1140 (size before relaxing)
 .stab          0x0000000000005790      0x480 build/tables.o
                                        0x654 (size before relaxing)
 .stab          0x0000000000005c10      0x7bc build/waveforms.o
                                        0x9e4 (size before relaxing)

.stabstr        0x0000000000000000     0x2af2
 *(.stabstr)
 .stabstr       0x0000000000000000     0x2af2 build/adc.o

.stab.excl
 *(.stab.excl)

.stab.exclstr
 *(.stab.exclstr)

.stab.index
 *(.stab.index)

.stab.indexstr
 *(.stab.indexstr)

.comment        0x0000000000000000       0x11
 *(.comment)
 .comment       0x0000000000000000       0x11 build/adc.o
                                         0x12 (size before relaxing)
 .comment       0x0000000000000011       0x12 build/clock.o
 .comment       0x0000000000000011       0x12 build/config_bus.o
 .comment       0x0000000000000011       0x12 build/eeprom_store.o
 .comment       0x0000000000000011       0x12 build/engine.o
 .comment       0x0000000000000011       0x12 build/interrupts.o
 .comment       0x0000000000000011       0x12 build/io.o
 .comment       0x0000000000000011       0x12 build/main.o
 .comment       0x0000000000000011       0x12 build/modes.o
 .comment       0x0000000000000011       0x12 build/tables.o
 .comment       0x0000000000000011       0x12 build/waveforms.o

.note.gnu.avr.deviceinfo
                0x0000000000000000       0x40
 .note.gnu.avr.deviceinfo
                0x0000000000000000       0x40 /usr/lib/gcc/avr/5.4.0/../../../avr/lib/avr5/crtatmega328p.o

.note.gnu.build-id
 *(.note.gnu.build-id)

.debug
 *(.debug)

.line
 *(.line)

.debug_srcinfo
 *(.debug_srcinfo)

.debug_sfnames
 *(.debug_sfnames)

.debug_aranges
 *(.debug_aranges)

.debug_pubnames
 *(.debug_pubnames)

.debug_info     0x0000000000000000      0x5f4
 *(.debug_info .gnu.linkonce.wi.*)
 .debug_info    0x0000000000000000      0x5f4 /usr/lib/gcc/avr/5.4.0/../../../avr/lib/avr5/crtatmega328p.o

.debug_abbrev   0x0000000000000000      0x5a2
 *(.debug_abbrev)
 .debug_abbrev  0x0000000000000000      0x5a2 /usr/lib/gcc/avr/5.4.0/../../../avr/lib/avr5/crtatmega328p.o

.debug_line     0x0000000000000000       0x1a
 *(.debug_line .debug_line.* .debug_line_end)
 .debug_line    0x0000000000000000       0x1a /usr/lib/gcc/avr/5.4.0/../../../avr/lib/avr5/crtatmega328p.o

.debug_frame
 *(.debug_frame)

.debug_str      0x0000000000000000      0x208
 *(.debug_str)
 .debug_str     0x0000000000000000      0x208 /usr/lib/gcc/avr/5.4.0/../../../avr/lib/avr5/crtatmega328p.o

.debug_loc
 *(.debug_loc)

.debug_macinfo
 *(.debug_macinfo)

.debug_weaknames
 *(.debug_weaknames)

.debug_funcnames
 *(.debug_funcnames)

.debug_typenames
 *(.debug_typenames)

.debug_varnames
 *(.debug_varnames)

.debug_pubtypes
 *(.debug_pubtypes)

.debug_ranges
 *(.debug_ranges)

.debug_macro
 *(.debug_macro)
OUTPUT(build/megatide.elf elf32-avr)
LOAD linker stubs
